target datalayout = "e-m:e-p270:32:32-p271:32:32-p272:64:64-i64:64-i128:128-f80:128-n8:16:32:64-S128"
target triple = "x86_64-pc-linux-gnu"

%struct.pmix_object_t = type { %union.pthread_mutex_t, ptr, i32, %struct.pmix_tma }
%union.pthread_mutex_t = type { %struct.__pthread_mutex_s }
%struct.__pthread_mutex_s = type { i32, i32, i32, i32, i32, i16, i16, %struct.__pthread_internal_list }
%struct.__pthread_internal_list = type { ptr, ptr }
%struct.pmix_tma = type { ptr, ptr, ptr, ptr, ptr, ptr, ptr, ptr }
%struct.pmix_mca_base_framework_t = type { ptr, ptr, ptr, ptr, ptr, ptr, i32, i32, ptr, ptr, i32, i32, %struct.pmix_list_t, %struct.pmix_list_t }
%struct.pmix_list_t = type { %struct.pmix_object_t, %struct.pmix_list_item_t, i64 }
%struct.pmix_list_item_t = type { %struct.pmix_object_t, ptr, ptr, i32 }
%struct.pmix_output_desc_t = type { i8, i8, i32, i8, i32, ptr, ptr, i32, ptr, i32, i8, i8, i8, i8, ptr, i32, i32 }
%struct.pmix_buffer_t = type { %struct.pmix_object_t, i8, ptr, ptr, ptr, i64, i64 }

@pmix_bfrops_base_framework = external global %struct.pmix_mca_base_framework_t, align 8
@pmix_output_info = external global [0 x %struct.pmix_output_desc_t], align 8
@.str.1 = private unnamed_addr constant [29 x i8] c"pmix20_bfrop_pack_bool * %d\0A\00", align 1

; Function Attrs: nounwind uwtable
define i32 @pmix20_bfrop_pack_bool(ptr noundef %0, ptr noundef %1, ptr noundef %2, i32 noundef %3, i16 noundef zeroext %4) #0 {
  %6 = alloca i32, align 4
  %7 = alloca ptr, align 8
  %8 = alloca ptr, align 8
  %9 = alloca ptr, align 8
  %10 = alloca i32, align 4
  %11 = alloca i16, align 2
  %12 = alloca ptr, align 8
  %13 = alloca i32, align 4
  %14 = alloca ptr, align 8
  %15 = alloca i32, align 4
  store ptr %0, ptr %7, align 8, !tbaa !11
  store ptr %1, ptr %8, align 8, !tbaa !3
  store ptr %2, ptr %9, align 8, !tbaa !3
  store i32 %3, ptr %10, align 4, !tbaa !7
  store i16 %4, ptr %11, align 2, !tbaa !9
  call void @llvm.lifetime.start.p0(i64 8, ptr %12) #9
  call void @llvm.lifetime.start.p0(i64 4, ptr %13) #9
  call void @llvm.lifetime.start.p0(i64 8, ptr %14) #9
  %16 = load ptr, ptr %9, align 8, !tbaa !3
  store ptr %16, ptr %14, align 8, !tbaa !42
  %17 = load i32, ptr getelementptr inbounds nuw (%struct.pmix_mca_base_framework_t, ptr @pmix_bfrops_base_framework, i32 0, i32 11), align 4, !tbaa !22
  %18 = icmp sge i32 %17, 0
  br i1 %18, label %19, label %32

19:                                               ; preds = %5
  %20 = load i32, ptr getelementptr inbounds nuw (%struct.pmix_mca_base_framework_t, ptr @pmix_bfrops_base_framework, i32 0, i32 11), align 4, !tbaa !22
  %21 = icmp slt i32 %20, 64
  br i1 %21, label %22, label %32

22:                                               ; preds = %19
  %23 = load i32, ptr getelementptr inbounds nuw (%struct.pmix_mca_base_framework_t, ptr @pmix_bfrops_base_framework, i32 0, i32 11), align 4, !tbaa !22
  %24 = sext i32 %23 to i64
  %25 = getelementptr inbounds [0 x %struct.pmix_output_desc_t], ptr @pmix_output_info, i64 0, i64 %24
  %26 = getelementptr inbounds nuw %struct.pmix_output_desc_t, ptr %25, i32 0, i32 2
  %27 = load i32, ptr %26, align 4, !tbaa !28
  %28 = icmp sge i32 %27, 20
  br i1 %28, label %29, label %32

29:                                               ; preds = %22
  %30 = load i32, ptr getelementptr inbounds nuw (%struct.pmix_mca_base_framework_t, ptr @pmix_bfrops_base_framework, i32 0, i32 11), align 4, !tbaa !22
  %31 = load i32, ptr %10, align 4, !tbaa !7
  call void (i32, ptr, ...) @pmix_output(i32 noundef %30, ptr noundef @.str.1, i32 noundef %31)
  br label %32

32:                                               ; preds = %29, %22, %19, %5
  %33 = load ptr, ptr %8, align 8, !tbaa !3
  %34 = load i32, ptr %10, align 4, !tbaa !7
  %35 = sext i32 %34 to i64
  %36 = call ptr @pmix_bfrop_buffer_extend(ptr noundef %33, i64 noundef %35)
  store ptr %36, ptr %12, align 8, !tbaa !31
  %37 = icmp eq ptr null, %36
  br i1 %37, label %38, label %39

38:                                               ; preds = %32
  store i32 -29, ptr %6, align 4
  store i32 1, ptr %15, align 4
  br label %78

39:                                               ; preds = %32
  store i32 0, ptr %13, align 4, !tbaa !7
  br label %40

40:                                               ; preds = %62, %39
  %41 = load i32, ptr %13, align 4, !tbaa !7
  %42 = load i32, ptr %10, align 4, !tbaa !7
  %43 = icmp slt i32 %41, %42
  br i1 %43, label %44, label %65

44:                                               ; preds = %40
  %45 = load ptr, ptr %14, align 8, !tbaa !42
  %46 = load i32, ptr %13, align 4, !tbaa !7
  %47 = sext i32 %46 to i64
  %48 = getelementptr inbounds i8, ptr %45, i64 %47
  %49 = load i8, ptr %48, align 1, !tbaa !44, !range !45, !noundef !46
  %50 = trunc i8 %49 to i1
  br i1 %50, label %51, label %56

51:                                               ; preds = %44
  %52 = load ptr, ptr %12, align 8, !tbaa !31
  %53 = load i32, ptr %13, align 4, !tbaa !7
  %54 = sext i32 %53 to i64
  %55 = getelementptr inbounds i8, ptr %52, i64 %54
  store i8 1, ptr %55, align 1, !tbaa !47
  br label %61

56:                                               ; preds = %44
  %57 = load ptr, ptr %12, align 8, !tbaa !31
  %58 = load i32, ptr %13, align 4, !tbaa !7
  %59 = sext i32 %58 to i64
  %60 = getelementptr inbounds i8, ptr %57, i64 %59
  store i8 0, ptr %60, align 1, !tbaa !47
  br label %61

61:                                               ; preds = %56, %51
  br label %62

62:                                               ; preds = %61
  %63 = load i32, ptr %13, align 4, !tbaa !7
  %64 = add nsw i32 %63, 1
  store i32 %64, ptr %13, align 4, !tbaa !7
  br label %40, !llvm.loop !48

65:                                               ; preds = %40
  %66 = load i32, ptr %10, align 4, !tbaa !7
  %67 = load ptr, ptr %8, align 8, !tbaa !3
  %68 = getelementptr inbounds nuw %struct.pmix_buffer_t, ptr %67, i32 0, i32 3
  %69 = load ptr, ptr %68, align 8, !tbaa !34
  %70 = sext i32 %66 to i64
  %71 = getelementptr inbounds i8, ptr %69, i64 %70
  store ptr %71, ptr %68, align 8, !tbaa !34
  %72 = load i32, ptr %10, align 4, !tbaa !7
  %73 = sext i32 %72 to i64
  %74 = load ptr, ptr %8, align 8, !tbaa !3
  %75 = getelementptr inbounds nuw %struct.pmix_buffer_t, ptr %74, i32 0, i32 6
  %76 = load i64, ptr %75, align 8, !tbaa !35
  %77 = add i64 %76, %73
  store i64 %77, ptr %75, align 8, !tbaa !35
  store i32 0, ptr %6, align 4
  store i32 1, ptr %15, align 4
  br label %78

78:                                               ; preds = %65, %38
  call void @llvm.lifetime.end.p0(i64 8, ptr %14) #9
  call void @llvm.lifetime.end.p0(i64 4, ptr %13) #9
  call void @llvm.lifetime.end.p0(i64 8, ptr %12) #9
  %79 = load i32, ptr %6, align 4
  ret i32 %79
}