; Function Attrs: nounwind uwtable
define range(i32 -29, 1) i32 @pmix20_bfrop_pack_bool(ptr noundef readnone captures(none) %0, ptr noundef %1, ptr noundef readonly captures(none) %2, i32 noundef %3, i16 noundef zeroext %4) local_unnamed_addr #0 {
  %6 = load i32, ptr getelementptr inbounds nuw (i8, ptr @pmix_bfrops_base_framework, i64 76), align 4, !tbaa !14
  %or.cond = icmp ult i32 %6, 64
  br i1 %or.cond, label %7, label %13

7:                                                ; preds = %5
  %8 = zext nneg i32 %6 to i64
  %9 = getelementptr inbounds nuw [0 x %struct.pmix_output_desc_t], ptr @pmix_output_info, i64 0, i64 %8, i32 2
  %10 = load i32, ptr %9, align 4, !tbaa !20
  %11 = icmp sgt i32 %10, 19
  br i1 %11, label %12, label %13

12:                                               ; preds = %7
  tail call void (i32, ptr, ...) @pmix_output(i32 noundef %6, ptr noundef nonnull @.str.1, i32 noundef %3) #8
  br label %13

13:                                               ; preds = %12, %7, %5
  %14 = sext i32 %3 to i64
  %15 = tail call ptr @pmix_bfrop_buffer_extend(ptr noundef %1, i64 noundef %14) #8
  %16 = icmp eq ptr %15, null
  br i1 %16, label %27, label %.preheader

.preheader:                                       ; preds = %13
  %17 = icmp sgt i32 %3, 0
  br i1 %17, label %.lr.ph.preheader, label %._crit_edge

.lr.ph.preheader:                                 ; preds = %.preheader
  %wide.trip.count = zext nneg i32 %3 to i64
  br label %.lr.ph

.lr.ph:                                           ; preds = %.lr.ph.preheader, %.lr.ph
  %indvars.iv = phi i64 [ 0, %.lr.ph.preheader ], [ %indvars.iv.next, %.lr.ph ]
  %18 = getelementptr inbounds nuw i8, ptr %2, i64 %indvars.iv
  %19 = load i8, ptr %18, align 1, !tbaa !37, !range !38, !noundef !39
  %20 = getelementptr inbounds nuw i8, ptr %15, i64 %indvars.iv
  store i8 %19, ptr %20, align 1, !tbaa !40
  %indvars.iv.next = add nuw nsw i64 %indvars.iv, 1
  %exitcond.not = icmp eq i64 %indvars.iv.next, %wide.trip.count
  br i1 %exitcond.not, label %._crit_edge, label %.lr.ph, !llvm.loop !41

._crit_edge:                                      ; preds = %.lr.ph, %.preheader
  %21 = getelementptr inbounds nuw i8, ptr %1, i64 136
  %22 = load ptr, ptr %21, align 8, !tbaa !23
  %23 = getelementptr inbounds i8, ptr %22, i64 %14
  store ptr %23, ptr %21, align 8, !tbaa !23
  %24 = getelementptr inbounds nuw i8, ptr %1, i64 160
  %25 = load i64, ptr %24, align 8, !tbaa !24
  %26 = add i64 %25, %14
  store i64 %26, ptr %24, align 8, !tbaa !24
  br label %27

27:                                               ; preds = %13, %._crit_edge
  %.0 = phi i32 [ 0, %._crit_edge ], [ -29, %13 ]
  ret i32 %.0
}